target datalayout = "e-m:e-p270:32:32-p271:32:32-p272:64:64-i64:64-i128:128-f80:128-n8:16:32:64-S128"
target triple = "x86_64-pc-linux-gnu"

%"class.OpenSubdiv::v3_6_0::Bfr::SurfaceFactory" = type { %"class.OpenSubdiv::v3_6_0::Bfr::SurfaceFactoryMeshAdapter", i32, %"class.OpenSubdiv::v3_6_0::Sdc::Options", %"class.OpenSubdiv::v3_6_0::Bfr::SurfaceFactory::Options", i8, i32, ptr }
%"class.OpenSubdiv::v3_6_0::Bfr::SurfaceFactoryMeshAdapter" = type { ptr }
%"class.OpenSubdiv::v3_6_0::Sdc::Options" = type { i8, i8, i8, i8 }
%"class.OpenSubdiv::v3_6_0::Bfr::SurfaceFactory::Options" = type <{ i64, ptr, i8, i8, i8, [5 x i8] }>

; Function Attrs: mustprogress nounwind uwtable
define linkonce_odr noundef ptr @_ZNK10OpenSubdiv6v3_6_03Bfr14SurfaceFactory7Options16GetExternalCacheEv(ptr noundef nonnull align 8 dereferenceable(19) %0) #0 comdat align 2 {
  %2 = alloca ptr, align 8
  store ptr %0, ptr %2, align 8
  %3 = load ptr, ptr %2, align 8
  %4 = getelementptr inbounds nuw %"class.OpenSubdiv::v3_6_0::Bfr::SurfaceFactory::Options", ptr %3, i32 0, i32 1
  %5 = load ptr, ptr %4, align 8
  ret ptr %5
}

; Function Attrs: mustprogress nounwind uwtable
define linkonce_odr noundef zeroext i1 @_ZNK10OpenSubdiv6v3_6_03Bfr14SurfaceFactory7Options16IsCachingEnabledEv(ptr noundef nonnull align 8 dereferenceable(19) %0) #0 comdat align 2 {
  %2 = alloca ptr, align 8
  store ptr %0, ptr %2, align 8
  %3 = load ptr, ptr %2, align 8
  %4 = getelementptr inbounds nuw %"class.OpenSubdiv::v3_6_0::Bfr::SurfaceFactory::Options", ptr %3, i32 0, i32 2
  %5 = load i8, ptr %4, align 8
  %6 = and i8 %5, 1
  %7 = icmp ne i8 %6, 0
  ret i1 %7
}

; Function Attrs: mustprogress uwtable
define void @_ZN10OpenSubdiv6v3_6_03Bfr14SurfaceFactory17setFactoryOptionsERKNS2_7OptionsE(ptr noundef nonnull align 8 dereferenceable(56) %0, ptr noundef nonnull align 8 dereferenceable(19) %1) #1 align 2 {
  %3 = alloca ptr, align 8
  %4 = alloca ptr, align 8
  store ptr %0, ptr %3, align 8
  store ptr %1, ptr %4, align 8
  %5 = load ptr, ptr %3, align 8
  %6 = load ptr, ptr %4, align 8
  %7 = getelementptr inbounds nuw %"class.OpenSubdiv::v3_6_0::Bfr::SurfaceFactory", ptr %5, i32 0, i32 3
  call void @llvm.memcpy.p0.p0.i64(ptr align 8 %7, ptr align 8 %6, i64 19, i1 false)
  %8 = getelementptr inbounds nuw %"class.OpenSubdiv::v3_6_0::Bfr::SurfaceFactory", ptr %5, i32 0, i32 3
  %9 = call noundef zeroext i1 @_ZNK10OpenSubdiv6v3_6_03Bfr14SurfaceFactory7Options16IsCachingEnabledEv(ptr noundef nonnull align 8 dereferenceable(19) %8)
  br i1 %9, label %10, label %19

10:                                               ; preds = %2
  %11 = getelementptr inbounds nuw %"class.OpenSubdiv::v3_6_0::Bfr::SurfaceFactory", ptr %5, i32 0, i32 3
  %12 = call noundef ptr @_ZNK10OpenSubdiv6v3_6_03Bfr14SurfaceFactory7Options16GetExternalCacheEv(ptr noundef nonnull align 8 dereferenceable(19) %11)
  %13 = icmp ne ptr %12, null
  br i1 %13, label %14, label %18

14:                                               ; preds = %10
  %15 = getelementptr inbounds nuw %"class.OpenSubdiv::v3_6_0::Bfr::SurfaceFactory", ptr %5, i32 0, i32 3
  %16 = call noundef ptr @_ZNK10OpenSubdiv6v3_6_03Bfr14SurfaceFactory7Options16GetExternalCacheEv(ptr noundef nonnull align 8 dereferenceable(19) %15)
  %17 = getelementptr inbounds nuw %"class.OpenSubdiv::v3_6_0::Bfr::SurfaceFactory", ptr %5, i32 0, i32 6
  store ptr %16, ptr %17, align 8
  br label %18

18:                                               ; preds = %14, %10
  br label %19

19:                                               ; preds = %18, %2
  ret void
}