; Function Attrs: mustprogress nofree norecurse nosync nounwind willreturn memory(argmem: readwrite) uwtable
define void @_ZN10OpenSubdiv6v3_6_03Bfr14SurfaceFactory17setFactoryOptionsERKNS2_7OptionsE(ptr noundef nonnull align 8 captures(none) dereferenceable(56) initializes((16, 35)) %0, ptr noundef nonnull readonly align 8 captures(none) dereferenceable(19) %1) local_unnamed_addr #3 align 2 {
  %3 = getelementptr inbounds nuw i8, ptr %0, i64 16
  tail call void @llvm.memcpy.p0.p0.i64(ptr noundef nonnull align 8 dereferenceable(19) %3, ptr noundef nonnull align 8 dereferenceable(19) %1, i64 19, i1 false)
  %4 = getelementptr inbounds nuw i8, ptr %0, i64 32
  %5 = load i8, ptr %4, align 8
  %6 = and i8 %5, 1
  %.not2 = icmp eq i8 %6, 0
  br i1 %.not2, label %12, label %7

7:                                                ; preds = %2
  %8 = getelementptr inbounds nuw i8, ptr %0, i64 24
  %9 = load ptr, ptr %8, align 8
  %.not = icmp eq ptr %9, null
  br i1 %.not, label %12, label %10

10:                                               ; preds = %7
  %11 = getelementptr inbounds nuw i8, ptr %0, i64 48
  store ptr %9, ptr %11, align 8
  br label %12

12:                                               ; preds = %7, %10, %2
  ret void
}